; Function Attrs: nounwind uwtable
define range(i32 -1, 1) i32 @H5M__init_package() local_unnamed_addr #0 {
  %1 = load i8, ptr @H5M_init_g, align 1, !tbaa !3, !range !7, !noundef !8
  %2 = trunc nuw i8 %1 to i1
  %3 = load i8, ptr @H5_libterm_g, align 1, !range !7
  %4 = trunc nuw i8 %3 to i1
  %5 = xor i1 %4, true
  %6 = select i1 %2, i1 true, i1 %5
  br i1 %6, label %7, label %15, !prof !9

7:                                                ; preds = %0
  %8 = tail call i32 @H5I_register_type(ptr noundef nonnull @H5I_MAP_CLS) #3
  %9 = icmp slt i32 %8, 0
  br i1 %9, label %10, label %14

10:                                               ; preds = %7
  %11 = load i64, ptr @H5E_MAP_g, align 8, !tbaa !10
  %12 = load i64, ptr @H5E_CANTINIT_g, align 8, !tbaa !10
  %13 = tail call i32 (ptr, ptr, i32, i64, i64, ptr, ...) @H5E_printf_stack(ptr noundef nonnull @.str, ptr noundef nonnull @__func__.H5M__init_package, i32 noundef 124, i64 noundef %11, i64 noundef %12, ptr noundef nonnull @.str.2) #3
  br label %15

14:                                               ; preds = %7
  store i1 true, ptr @H5M_top_package_initialize_s, align 1
  br label %15

15:                                               ; preds = %10, %14, %0
  %.0 = phi i32 [ -1, %10 ], [ 0, %14 ], [ 0, %0 ]
  ret i32 %.0
}